; Listing generated by Microsoft (R) Optimizing Compiler Version 19.31.31105.0 

	TITLE	D:\Language C\HashTable\HashTable\Release\Logs.obj
	.686P
	.XMM
	include listing.inc
	.model	flat

INCLUDELIB MSVCRT
INCLUDELIB OLDNAMES

PUBLIC	?LogLevelMessages@@3PAPBDA			; LogLevelMessages
PUBLIC	??_C@_05EHILDPJH@TRACE@				; `string'
PUBLIC	??_C@_05KOLFGEDA@DEBUG@				; `string'
PUBLIC	??_C@_04BEADLPGM@INFO@				; `string'
PUBLIC	??_C@_07KCOHIFOP@WARNING@			; `string'
PUBLIC	??_C@_05MBDEGLCK@ERROR@				; `string'
PUBLIC	?LogFiles@@3PAULogFile@@A			; LogFiles
PUBLIC	?LogFilesCreated@@3_NA				; LogFilesCreated
PUBLIC	?LogFilesClosed@@3_NA				; LogFilesClosed
PUBLIC	?TextOffset@@3HA				; TextOffset
PUBLIC	?AbsoluteLogLineIndex@@3IA			; AbsoluteLogLineIndex
_BSS	SEGMENT
?LogFiles@@3PAULogFile@@A DB 0a0H DUP (?)		; LogFiles
?LogFilesCreated@@3_NA DB 01H DUP (?)			; LogFilesCreated
	ALIGN	4

?LogFilesClosed@@3_NA DB 01H DUP (?)			; LogFilesClosed
	ALIGN	4

?TextOffset@@3HA DD 01H DUP (?)				; TextOffset
?AbsoluteLogLineIndex@@3IA DD 01H DUP (?)		; AbsoluteLogLineIndex
_BSS	ENDS
CONST	SEGMENT
?_Fake_alloc@std@@3U_Fake_allocator@1@B	ORG $+1		; std::_Fake_alloc
CONST	ENDS
;	COMDAT ??_C@_05MBDEGLCK@ERROR@
CONST	SEGMENT
??_C@_05MBDEGLCK@ERROR@ DB 'ERROR', 00H			; `string'
CONST	ENDS
;	COMDAT ??_C@_07KCOHIFOP@WARNING@
CONST	SEGMENT
??_C@_07KCOHIFOP@WARNING@ DB 'WARNING', 00H		; `string'
CONST	ENDS
;	COMDAT ??_C@_04BEADLPGM@INFO@
CONST	SEGMENT
??_C@_04BEADLPGM@INFO@ DB 'INFO', 00H			; `string'
CONST	ENDS
;	COMDAT ??_C@_05KOLFGEDA@DEBUG@
CONST	SEGMENT
??_C@_05KOLFGEDA@DEBUG@ DB 'DEBUG', 00H			; `string'
CONST	ENDS
;	COMDAT ??_C@_05EHILDPJH@TRACE@
CONST	SEGMENT
??_C@_05EHILDPJH@TRACE@ DB 'TRACE', 00H			; `string'
CONST	ENDS
_DATA	SEGMENT
?LogLevelMessages@@3PAPBDA DD FLAT:??_C@_05EHILDPJH@TRACE@ ; LogLevelMessages
	DD	FLAT:??_C@_05KOLFGEDA@DEBUG@
	DD	FLAT:??_C@_04BEADLPGM@INFO@
	DD	FLAT:??_C@_07KCOHIFOP@WARNING@
	DD	FLAT:??_C@_05MBDEGLCK@ERROR@
_DATA	ENDS
PUBLIC	___local_stdio_printf_options
PUBLIC	__vfprintf_l
PUBLIC	_fprintf
PUBLIC	_vsnprintf
PUBLIC	_snprintf
PUBLIC	?LogsConstructor@@YAHXZ				; LogsConstructor
PUBLIC	?LogsDestructor@@YAXXZ				; LogsDestructor
PUBLIC	?LogLine@@YAXPBDW4LogLevel@@W4LogSignature@@_N00H@Z ; LogLine
PUBLIC	?LogFLine@@YAXW4LogLevel@@W4LogSignature@@_NPBD3H3ZZ ; LogFLine
PUBLIC	?LogTrace@@YAXW4LogSignature@@PBD1H@Z		; LogTrace
PUBLIC	?LogBeginDump@@YAPAU_iobuf@@W4LogSignature@@W4LogLevel@@PBD2H@Z ; LogBeginDump
PUBLIC	?LogEndDump@@YAXW4LogSignature@@@Z		; LogEndDump
PUBLIC	?LogAddImage@@YAXW4LogSignature@@PBD@Z		; LogAddImage
PUBLIC	?_OptionsStorage@?1??__local_stdio_printf_options@@9@4_KA ; `__local_stdio_printf_options'::`2'::_OptionsStorage
PUBLIC	??_C@_0P@IHBDHAOI@rd?5_logs?2?1s?5?1q@		; `string'
PUBLIC	??_C@_09JHBEBHLP@md?5_logs?2@			; `string'
PUBLIC	??_C@_0BF@KAGIMHEI@?N?a?y?h?i?5?k?n?c?5?o?p?n?c?p?$OA?l?l?$PL?4@ ; `string'
PUBLIC	??_C@_0BH@JCPAHDHF@_logs?2log_general?4html@	; `string'
PUBLIC	??_C@_0BI@GOPCKDAA@?K?n?c?5?p?$OA?a?n?r?$PL?5?u?e?x?9?r?$OA?a?k?h?v?$PL?4@ ; `string'
PUBLIC	??_C@_0BK@LJLFJJLN@_logs?2log_hash_table?4html@	; `string'
PUBLIC	??_C@_0BP@OEDACHLD@?K?n?c?5?p?$OA?a?n?r?$PL?5?d?b?s?q?b?$PP?g?m?n?c?n?5?q?o?h?q?j?$OA?4@ ; `string'
PUBLIC	??_C@_0BE@GNPFIHOC@_logs?2log_list?4html@	; `string'
PUBLIC	??_C@_01NOFIACDB@w@				; `string'
PUBLIC	??_C@_0DA@OLLDECFK@?N?x?h?a?j?$OA?5?n?r?j?p?$PL?r?h?$PP?5?t?$OA?i?k?$OA?5?q?5?k?n?c?$OA?l?h?4@ ; `string'
PUBLIC	??_C@_0DA@CHDMBBAG@D?3?2Language?5C?2HashTable?2HashTab@ ; `string'
PUBLIC	??_C@_0EO@LDDEJJGJ@int?5__cdecl?5LogConstructor?$CIcons@ ; `string'
PUBLIC	??_C@_0BC@OBIFBCGF@?$CFH?3?$CFM?3?$CFS?5?$CFd?4?$CFm?4?$CFY@ ; `string'
PUBLIC	??_C@_0OL@LBJLCLPB@?$DMhtml?$DO?6?$DMhead?$DO?$DMmeta?5charset?$DN?$CCCP1@ ; `string'
PUBLIC	??_C@_0BB@CNLIDADO@?$DM?1body?$DO?6?$DM?1html?$DO?6@ ; `string'
PUBLIC	??_C@_06PCNMNDII@FFA000@			; `string'
PUBLIC	??_C@_06CHLDILPM@FF4D00@			; `string'
PUBLIC	??_C@_06FLJHNCLK@D53032@			; `string'
PUBLIC	??_C@_06GOEJJOAP@EAE6CA@			; `string'
PUBLIC	??_C@_08OAHPJFNN@?$CFH?3?$CFM?3?$CFS@		; `string'
PUBLIC	??_C@_0MO@HKOGMAAE@?$DMpre?$DO?$DMfont?5color?$DN?$CC?$CFs?$CC?$DO?$CF20zd?$DO?5?$CF?9@ ; `string'
PUBLIC	??_C@_0LL@OJMABLHK@?$DMpre?$DO?$DMfont?5color?$DN?$CC?$CFs?$CC?$DO?$CF20zd?5?$CF?9?4@ ; `string'
PUBLIC	??_C@_0BP@PNKLOLMG@?$DM?1font?$DO?$DM?1pre?$DO?6?$DM?1body?$DO?6?$DM?1html?$DO?6@ ; `string'
PUBLIC	??_C@_06GKLHCLKA@F8CA00@			; `string'
PUBLIC	??_C@_0FI@GPNHOGCH@?$DMpre?$DO?6?7?$DMfont?5color?$DN?$CC?$CFs?$CC?$DO?6?$CF20zd?5@ ; `string'
PUBLIC	??_C@_06IPDIMPDJ@C5E0DC@			; `string'
PUBLIC	??_C@_0EI@HAFPAAKP@?$DMpre?$DO?6?7?$DMfont?5color?$DN?$CC?$CFs?$CC?$DO?6?$CF20zd?5@ ; `string'
PUBLIC	??_C@_0CB@PKIAMGMI@?7?$DM?1font?$DO?6?$DM?1pre?$DO?6?$DM?1body?$DO?6?$DM?1html?$DO@ ; `string'
PUBLIC	??_C@_0BP@EGJJCKFM@?$DMimg?5src?5?$DN?5?$CC?$CFs?$CC?5height?5?$DN?5600?$DO?6@ ; `string'
EXTRN	_atexit:PROC
EXTRN	__imp____acrt_iob_func:PROC
EXTRN	__imp__fclose:PROC
EXTRN	__imp__fflush:PROC
EXTRN	__imp__fopen:PROC
EXTRN	__imp__fputc:PROC
EXTRN	__imp__fputs:PROC
EXTRN	__imp__fseek:PROC
EXTRN	__imp__ftell:PROC
EXTRN	__imp____stdio_common_vfprintf:PROC
EXTRN	__imp____stdio_common_vsprintf:PROC
EXTRN	__imp__system:PROC
EXTRN	__imp___localtime64:PROC
EXTRN	__imp__strftime:PROC
EXTRN	__imp___time64:PROC
EXTRN	@__security_check_cookie@4:PROC
EXTRN	_memset:PROC
EXTRN	___security_cookie:DWORD
;	COMDAT ?_OptionsStorage@?1??__local_stdio_printf_options@@9@4_KA
_BSS	SEGMENT
?_OptionsStorage@?1??__local_stdio_printf_options@@9@4_KA DQ 01H DUP (?) ; `__local_stdio_printf_options'::`2'::_OptionsStorage
_BSS	ENDS
;	COMDAT ??_C@_0BP@EGJJCKFM@?$DMimg?5src?5?$DN?5?$CC?$CFs?$CC?5height?5?$DN?5600?$DO?6@
CONST	SEGMENT
??_C@_0BP@EGJJCKFM@?$DMimg?5src?5?$DN?5?$CC?$CFs?$CC?5height?5?$DN?5600?$DO?6@ DB '<'
	DB	'img src = "%s" height = 600>', 0aH, 00H	; `string'
CONST	ENDS
;	COMDAT ??_C@_0CB@PKIAMGMI@?7?$DM?1font?$DO?6?$DM?1pre?$DO?6?$DM?1body?$DO?6?$DM?1html?$DO@
CONST	SEGMENT
??_C@_0CB@PKIAMGMI@?7?$DM?1font?$DO?6?$DM?1pre?$DO?6?$DM?1body?$DO?6?$DM?1html?$DO@ DB 09H
	DB	'</font>', 0aH, '</pre>', 0aH, '</body>', 0aH, '</html>', 0aH, 00H ; `string'
CONST	ENDS
;	COMDAT ??_C@_0EI@HAFPAAKP@?$DMpre?$DO?6?7?$DMfont?5color?$DN?$CC?$CFs?$CC?$DO?6?$CF20zd?5@
CONST	SEGMENT
??_C@_0EI@HAFPAAKP@?$DMpre?$DO?6?7?$DMfont?5color?$DN?$CC?$CFs?$CC?$DO?6?$CF20zd?5@ DB '<'
	DB	'pre>', 0aH, 09H, '<font color="%s">', 0aH, '%20zd %-.8s [%-.8'
	DB	's] > %s', 0aH, 09H, 09H, 'in %s', 0aH, 09H, 09H, 'at %d line', 0aH
	DB	00H						; `string'
CONST	ENDS
;	COMDAT ??_C@_06IPDIMPDJ@C5E0DC@
CONST	SEGMENT
??_C@_06IPDIMPDJ@C5E0DC@ DB 'C5E0DC', 00H		; `string'
CONST	ENDS
;	COMDAT ??_C@_0FI@GPNHOGCH@?$DMpre?$DO?6?7?$DMfont?5color?$DN?$CC?$CFs?$CC?$DO?6?$CF20zd?5@
CONST	SEGMENT
??_C@_0FI@GPNHOGCH@?$DMpre?$DO?6?7?$DMfont?5color?$DN?$CC?$CFs?$CC?$DO?6?$CF20zd?5@ DB '<'
	DB	'pre>', 0aH, 09H, '<font color="%s">', 0aH, '%20zd %-.8s [%-.8'
	DB	's] > %s', 0aH, 09H, 09H, 'in %s', 0aH, 09H, 09H, 'at %d line', 0aH
	DB	09H, '</font>', 0aH, '</pre>', 0aH, 00H	; `string'
CONST	ENDS
;	COMDAT ??_C@_06GKLHCLKA@F8CA00@
CONST	SEGMENT
??_C@_06GKLHCLKA@F8CA00@ DB 'F8CA00', 00H		; `string'
CONST	ENDS
;	COMDAT ??_C@_0BP@PNKLOLMG@?$DM?1font?$DO?$DM?1pre?$DO?6?$DM?1body?$DO?6?$DM?1html?$DO?6@
CONST	SEGMENT
??_C@_0BP@PNKLOLMG@?$DM?1font?$DO?$DM?1pre?$DO?6?$DM?1body?$DO?6?$DM?1html?$DO?6@ DB '<'
	DB	'/font></pre>', 0aH, '</body>', 0aH, '</html>', 0aH, 00H ; `string'
CONST	ENDS
;	COMDAT ??_C@_0LL@OJMABLHK@?$DMpre?$DO?$DMfont?5color?$DN?$CC?$CFs?$CC?$DO?$CF20zd?5?$CF?9?4@
CONST	SEGMENT
??_C@_0LL@OJMABLHK@?$DMpre?$DO?$DMfont?5color?$DN?$CC?$CFs?$CC?$DO?$CF20zd?5?$CF?9?4@ DB '<'
	DB	'pre><font color="%s">%20zd %-.8s [%-.8s] > </font><font color'
	DB	' = "BDDA57">%s</font>', 0aH, '<font color = "B0B7C6"> in %s</'
	DB	'font>', 0aH, '<font color = "FFD700"> at %d line</font>', 0aH
	DB	'<font color = "ADDFAD">', 00H		; `string'
CONST	ENDS
;	COMDAT ??_C@_0MO@HKOGMAAE@?$DMpre?$DO?$DMfont?5color?$DN?$CC?$CFs?$CC?$DO?$CF20zd?$DO?5?$CF?9@
CONST	SEGMENT
??_C@_0MO@HKOGMAAE@?$DMpre?$DO?$DMfont?5color?$DN?$CC?$CFs?$CC?$DO?$CF20zd?$DO?5?$CF?9@ DB '<'
	DB	'pre><font color="%s">%20zd> %-.8s [%-.8s] > </font><font colo'
	DB	'r = "D5DED9">%s</font>', 0aH, '<font color = "B0B7C6"> in %s<'
	DB	'/font>', 0aH, '<font color = "FFD700"> at %d line</font>', 0aH
	DB	'<font color = "ADDFAD">', 09H, ' %s</font></pre>', 0aH, 00H ; `string'
CONST	ENDS
;	COMDAT ??_C@_08OAHPJFNN@?$CFH?3?$CFM?3?$CFS@
CONST	SEGMENT
??_C@_08OAHPJFNN@?$CFH?3?$CFM?3?$CFS@ DB '%H:%M:%S', 00H ; `string'
CONST	ENDS
;	COMDAT ??_C@_06GOEJJOAP@EAE6CA@
CONST	SEGMENT
??_C@_06GOEJJOAP@EAE6CA@ DB 'EAE6CA', 00H		; `string'
CONST	ENDS
;	COMDAT ??_C@_06FLJHNCLK@D53032@
CONST	SEGMENT
??_C@_06FLJHNCLK@D53032@ DB 'D53032', 00H		; `string'
CONST	ENDS
;	COMDAT ??_C@_06CHLDILPM@FF4D00@
CONST	SEGMENT
??_C@_06CHLDILPM@FF4D00@ DB 'FF4D00', 00H		; `string'
CONST	ENDS
;	COMDAT ??_C@_06PCNMNDII@FFA000@
CONST	SEGMENT
??_C@_06PCNMNDII@FFA000@ DB 'FFA000', 00H		; `string'
CONST	ENDS
;	COMDAT ??_C@_0BB@CNLIDADO@?$DM?1body?$DO?6?$DM?1html?$DO?6@
CONST	SEGMENT
??_C@_0BB@CNLIDADO@?$DM?1body?$DO?6?$DM?1html?$DO?6@ DB '</body>', 0aH, '<'
	DB	'/html>', 0aH, 00H				; `string'
CONST	ENDS
;	COMDAT ??_C@_0OL@LBJLCLPB@?$DMhtml?$DO?6?$DMhead?$DO?$DMmeta?5charset?$DN?$CCCP1@
CONST	SEGMENT
??_C@_0OL@LBJLCLPB@?$DMhtml?$DO?6?$DMhead?$DO?$DMmeta?5charset?$DN?$CCCP1@ DB '<'
	DB	'html>', 0aH, '<head><meta charset="CP1251"><title>%s</title><'
	DB	'style>font {line-height: 1.2;} body {background-color: #30303'
	DB	'0;  font-size: 12} head {background-color: #303030;}</style><'
	DB	'/head>', 0aH, '<body>', 0aH, '<h1><font color="99B333">%s %s.'
	DB	'</font></h1>', 0aH, 00H			; `string'
CONST	ENDS
;	COMDAT ??_C@_0BC@OBIFBCGF@?$CFH?3?$CFM?3?$CFS?5?$CFd?4?$CFm?4?$CFY@
CONST	SEGMENT
??_C@_0BC@OBIFBCGF@?$CFH?3?$CFM?3?$CFS?5?$CFd?4?$CFm?4?$CFY@ DB '%H:%M:%S'
	DB	' %d.%m.%Y', 00H				; `string'
CONST	ENDS
;	COMDAT ??_C@_0EO@LDDEJJGJ@int?5__cdecl?5LogConstructor?$CIcons@
CONST	SEGMENT
??_C@_0EO@LDDEJJGJ@int?5__cdecl?5LogConstructor?$CIcons@ DB 'int __cdecl '
	DB	'LogConstructor(const char *,const char *,const enum LogSignat'
	DB	'ure)', 00H					; `string'
CONST	ENDS
;	COMDAT ??_C@_0DA@CHDMBBAG@D?3?2Language?5C?2HashTable?2HashTab@
CONST	SEGMENT
??_C@_0DA@CHDMBBAG@D?3?2Language?5C?2HashTable?2HashTab@ DB 'D:\Language '
	DB	'C\HashTable\HashTable\Logs\Logs.cpp', 00H	; `string'
CONST	ENDS
;	COMDAT ??_C@_0DA@OLLDECFK@?N?x?h?a?j?$OA?5?n?r?j?p?$PL?r?h?$PP?5?t?$OA?i?k?$OA?5?q?5?k?n?c?$OA?l?h?4@
CONST	SEGMENT
??_C@_0DA@OLLDECFK@?N?x?h?a?j?$OA?5?n?r?j?p?$PL?r?h?$PP?5?t?$OA?i?k?$OA?5?q?5?k?n?c?$OA?l?h?4@ DB 0ceH
	DB	0f8H, 0e8H, 0e1H, 0eaH, 0e0H, ' ', 0eeH, 0f2H, 0eaH, 0f0H, 0fbH
	DB	0f2H, 0e8H, 0ffH, ' ', 0f4H, 0e0H, 0e9H, 0ebH, 0e0H, ' ', 0f1H
	DB	' ', 0ebH, 0eeH, 0e3H, 0e0H, 0ecH, 0e8H, '. FileName = "%s"', 00H ; `string'
CONST	ENDS
;	COMDAT ??_C@_01NOFIACDB@w@
CONST	SEGMENT
??_C@_01NOFIACDB@w@ DB 'w', 00H				; `string'
CONST	ENDS
;	COMDAT ??_C@_0BE@GNPFIHOC@_logs?2log_list?4html@
CONST	SEGMENT
??_C@_0BE@GNPFIHOC@_logs?2log_list?4html@ DB '_logs\log_list.html', 00H ; `string'
CONST	ENDS
;	COMDAT ??_C@_0BP@OEDACHLD@?K?n?c?5?p?$OA?a?n?r?$PL?5?d?b?s?q?b?$PP?g?m?n?c?n?5?q?o?h?q?j?$OA?4@
CONST	SEGMENT
??_C@_0BP@OEDACHLD@?K?n?c?5?p?$OA?a?n?r?$PL?5?d?b?s?q?b?$PP?g?m?n?c?n?5?q?o?h?q?j?$OA?4@ DB 0cbH
	DB	0eeH, 0e3H, ' ', 0f0H, 0e0H, 0e1H, 0eeH, 0f2H, 0fbH, ' ', 0e4H
	DB	0e2H, 0f3H, 0f1H, 0e2H, 0ffH, 0e7H, 0edH, 0eeH, 0e3H, 0eeH, ' '
	DB	0f1H, 0efH, 0e8H, 0f1H, 0eaH, 0e0H, '.', 00H	; `string'
CONST	ENDS
;	COMDAT ??_C@_0BK@LJLFJJLN@_logs?2log_hash_table?4html@
CONST	SEGMENT
??_C@_0BK@LJLFJJLN@_logs?2log_hash_table?4html@ DB '_logs\log_hash_table.'
	DB	'html', 00H					; `string'
CONST	ENDS
;	COMDAT ??_C@_0BI@GOPCKDAA@?K?n?c?5?p?$OA?a?n?r?$PL?5?u?e?x?9?r?$OA?a?k?h?v?$PL?4@
CONST	SEGMENT
??_C@_0BI@GOPCKDAA@?K?n?c?5?p?$OA?a?n?r?$PL?5?u?e?x?9?r?$OA?a?k?h?v?$PL?4@ DB 0cbH
	DB	0eeH, 0e3H, ' ', 0f0H, 0e0H, 0e1H, 0eeH, 0f2H, 0fbH, ' ', 0f5H
	DB	0e5H, 0f8H, '-', 0f2H, 0e0H, 0e1H, 0ebH, 0e8H, 0f6H, 0fbH, '.', 00H ; `string'
CONST	ENDS
;	COMDAT ??_C@_0BH@JCPAHDHF@_logs?2log_general?4html@
CONST	SEGMENT
??_C@_0BH@JCPAHDHF@_logs?2log_general?4html@ DB '_logs\log_general.html', 00H ; `string'
CONST	ENDS
;	COMDAT ??_C@_0BF@KAGIMHEI@?N?a?y?h?i?5?k?n?c?5?o?p?n?c?p?$OA?l?l?$PL?4@
CONST	SEGMENT
??_C@_0BF@KAGIMHEI@?N?a?y?h?i?5?k?n?c?5?o?p?n?c?p?$OA?l?l?$PL?4@ DB 0ceH, 0e1H
	DB	0f9H, 0e8H, 0e9H, ' ', 0ebH, 0eeH, 0e3H, ' ', 0efH, 0f0H, 0eeH
	DB	0e3H, 0f0H, 0e0H, 0ecH, 0ecH, 0fbH, '.', 00H	; `string'
CONST	ENDS
;	COMDAT ??_C@_09JHBEBHLP@md?5_logs?2@
CONST	SEGMENT
??_C@_09JHBEBHLP@md?5_logs?2@ DB 'md _logs\', 00H	; `string'
CONST	ENDS
;	COMDAT ??_C@_0P@IHBDHAOI@rd?5_logs?2?1s?5?1q@
CONST	SEGMENT
??_C@_0P@IHBDHAOI@rd?5_logs?2?1s?5?1q@ DB 'rd _logs\/s /q', 00H ; `string'
CONST	ENDS
; Function compile flags: /Ogtp
; File D:\Language C\HashTable\HashTable\Logs\Logs.cpp
;	COMDAT ?LogConstructor@@YAHPBD0W4LogSignature@@@Z
_TEXT	SEGMENT
_rawTime$ = -1076					; size = 8
_buffer$ = -1068					; size = 1024
_bufferTime$ = -44					; size = 40
__$ArrayPad$ = -4					; size = 4
_logFileName$ = 8					; size = 4
_caption$ = 12						; size = 4
_sig$ = 16						; size = 4
?LogConstructor@@YAHPBD0W4LogSignature@@@Z PROC		; LogConstructor, COMDAT

; 94   : {

	push	ebp
	mov	ebp, esp
	sub	esp, 1076				; 00000434H
	mov	eax, DWORD PTR ___security_cookie
	xor	eax, ebp
	mov	DWORD PTR __$ArrayPad$[ebp], eax
	push	ebx
	push	esi
	mov	esi, DWORD PTR _logFileName$[ebp]
	push	edi
	mov	edi, DWORD PTR _caption$[ebp]

; 95   :     assert(logFileName);
; 96   :     assert(caption);
; 97   :     assert(LogFilesCreated);
; 98   : 
; 99   :     size_t logIndex = (size_t)sig;
; 100  :     assert(logIndex < LogFilesSize);
; 101  : 
; 102  :     //***\\---//***\\-----//***\\---//***\\-----//*****\\-----//***\\---//***\\-----//***\\---//***\\
; 103  : 
; 104  :     FILE* file = fopen(logFileName, "w");

	push	OFFSET ??_C@_01NOFIACDB@w@
	push	esi
	call	DWORD PTR __imp__fopen
	mov	ebx, eax
	add	esp, 8

; 105  :     
; 106  :     if (!file)

	test	ebx, ebx
	jne	SHORT $LN2@LogConstru

; 107  :     {
; 108  :         LogFLine(LOG_LVL_ERROR, LOG_SIG_GENERAL, true, __FUNCSIG__, __FILE__, __LINE__,

	push	esi
	push	OFFSET ??_C@_0DA@OLLDECFK@?N?x?h?a?j?$OA?5?n?r?j?p?$PL?r?h?$PP?5?t?$OA?i?k?$OA?5?q?5?k?n?c?$OA?l?h?4@
	push	108					; 0000006cH
	push	OFFSET ??_C@_0DA@CHDMBBAG@D?3?2Language?5C?2HashTable?2HashTab@
	push	OFFSET ??_C@_0EO@LDDEJJGJ@int?5__cdecl?5LogConstructor?$CIcons@
	push	1
	push	eax
	push	4
	call	?LogFLine@@YAXW4LogLevel@@W4LogSignature@@_NPBD3H3ZZ ; LogFLine
	add	esp, 32					; 00000020H

; 109  :                  "Ошибка открытия файла с логами. FileName = \"%s\"", logFileName);
; 110  : 
; 111  :         return LOG_ERR_FILE_OPENING;

	lea	eax, DWORD PTR [ebx+1]
	pop	edi

; 159  :     
; 160  :     return LOG_NO_ERRORS;
; 161  : }

	pop	esi
	pop	ebx
	mov	ecx, DWORD PTR __$ArrayPad$[ebp]
	xor	ecx, ebp
	call	@__security_check_cookie@4
	mov	esp, ebp
	pop	ebp
	ret	0
$LN2@LogConstru:

; 112  :     }
; 113  : 
; 114  :     //***\\---//***\\-----//***\\---//***\\-----//*****\\-----//***\\---//***\\-----//***\\---//***\\
; 115  :     
; 116  :     LogFiles[logIndex].file     = file;

	mov	ecx, DWORD PTR _sig$[ebp]
	xorps	xmm0, xmm0
	mov	eax, ecx

; 117  :     LogFiles[logIndex].fileName = logFileName;
; 118  :     LogFiles[logIndex].caption  = caption;
; 119  :     LogFiles[logIndex].sig      = sig;
; 120  : 
; 121  :     //***\\---//***\\-----//***\\---//***\\-----//*****\\-----//***\\---//***\\-----//***\\---//***\\
; 122  :             
; 123  :     char  bufferTime[bufferTimeSize] = "";

	movq	QWORD PTR _bufferTime$[ebp+32], xmm0
	shl	eax, 4

; 124  :     char  buffer[bufferSize] = "";

	push	1024					; 00000400H
	push	0
	movups	XMMWORD PTR _bufferTime$[ebp], xmm0
	mov	DWORD PTR ?LogFiles@@3PAULogFile@@A[eax], ebx
	mov	DWORD PTR ?LogFiles@@3PAULogFile@@A[eax+12], esi
	mov	DWORD PTR ?LogFiles@@3PAULogFile@@A[eax+8], edi
	mov	DWORD PTR ?LogFiles@@3PAULogFile@@A[eax+4], ecx
	lea	eax, DWORD PTR _buffer$[ebp]
	push	eax
	movups	XMMWORD PTR _bufferTime$[ebp+16], xmm0
	call	_memset

; 125  : 
; 126  :     //***\\---//***\\-----//***\\---//***\\-----//*****\\-----//***\\---//***\\-----//***\\---//***\\
; 127  : 
; 128  :     time_t rawTime = time(nullptr);

	push	0
	call	_time
	mov	DWORD PTR _rawTime$[ebp], eax

; 129  :     tm*    curTime = localtime(&rawTime);

	lea	eax, DWORD PTR _rawTime$[ebp]
	push	eax
	mov	DWORD PTR _rawTime$[ebp+4], edx
	call	_localtime

; 130  :     strftime(bufferTime, bufferTimeSize, "%H:%M:%S %d.%m.%Y", curTime);

	push	eax
	push	OFFSET ??_C@_0BC@OBIFBCGF@?$CFH?3?$CFM?3?$CFS?5?$CFd?4?$CFm?4?$CFY@
	lea	eax, DWORD PTR _bufferTime$[ebp]
	push	40					; 00000028H
	push	eax
	call	DWORD PTR __imp__strftime

; 131  : 
; 132  :     //***\\---//***\\-----//***\\---//***\\-----//*****\\-----//***\\---//***\\-----//***\\---//***\\
; 133  : 
; 134  :     snprintf(buffer, bufferSize, 

	lea	eax, DWORD PTR _bufferTime$[ebp]
	push	eax
	push	edi
	push	edi
	push	OFFSET ??_C@_0OL@LBJLCLPB@?$DMhtml?$DO?6?$DMhead?$DO?$DMmeta?5charset?$DN?$CCCP1@
	lea	eax, DWORD PTR _buffer$[ebp]
	push	1024					; 00000400H
	push	eax
	call	_snprintf

; 135  :              "<html>\n"
; 136  :              "<head>"
; 137  :              "<meta charset=\"CP1251\">"
; 138  :              "<title>%s</title>"
; 139  :              "<style>font {line-height: 1.2;} "
; 140  :              "body {background-color: #303030;  font-size: 12} "
; 141  :              "head {background-color: #303030;}"
; 142  :              "</style>"
; 143  :              "</head>\n"
; 144  :              "<body>\n"
; 145  :              "<h1><font color=\"99B333\">%s %s.</font></h1>\n", caption, caption, bufferTime);
; 146  :     
; 147  :     fputs(buffer, file);

	mov	edi, DWORD PTR __imp__fputs
	lea	eax, DWORD PTR _buffer$[ebp]
	push	ebx
	push	eax
	call	edi

; 148  : 
; 149  :     //***\\---//***\\-----//***\\---//***\\-----//*****\\-----//***\\---//***\\-----//***\\---//***\\
; 150  : 
; 151  :     TextOffset = ftell(file);

	mov	esi, DWORD PTR __imp__ftell
	add	esp, 68					; 00000044H
	push	ebx
	call	esi

; 152  : 
; 153  :     fputs("</body>\n"

	push	ebx
	push	OFFSET ??_C@_0BB@CNLIDADO@?$DM?1body?$DO?6?$DM?1html?$DO?6@
	mov	DWORD PTR ?TextOffset@@3HA, eax		; TextOffset
	call	edi

; 154  :           "</html>\n", file);
; 155  : 
; 156  :     TextOffset -= ftell(file);

	push	ebx
	call	esi
	sub	DWORD PTR ?TextOffset@@3HA, eax		; TextOffset

; 157  : 
; 158  :     fflush(file);

	push	ebx
	call	DWORD PTR __imp__fflush

; 159  :     
; 160  :     return LOG_NO_ERRORS;
; 161  : }

	mov	ecx, DWORD PTR __$ArrayPad$[ebp]
	add	esp, 20					; 00000014H
	xor	ecx, ebp
	xor	eax, eax
	pop	edi
	pop	esi
	pop	ebx
	call	@__security_check_cookie@4
	mov	esp, ebp
	pop	ebp
	ret	0
?LogConstructor@@YAHPBD0W4LogSignature@@@Z ENDP		; LogConstructor
_TEXT	ENDS
; Function compile flags: /Ogtp
; File D:\Language C\HashTable\HashTable\Logs\Logs.cpp
;	COMDAT ?LogAddImage@@YAXW4LogSignature@@PBD@Z
_TEXT	SEGMENT
_sig$ = 8						; size = 4
_imagePath$ = 12					; size = 4
?LogAddImage@@YAXW4LogSignature@@PBD@Z PROC		; LogAddImage, COMDAT

; 461  : {

	push	ebp
	mov	ebp, esp

; 462  :     assert(imagePath);
; 463  : 
; 464  :     size_t logIndex = (size_t)sig;
; 465  :     assert(logIndex < LogFilesSize);
; 466  : 
; 467  :     FILE* logFile = LogFiles[logIndex].file;

	mov	eax, DWORD PTR _sig$[ebp]
	push	esi
	shl	eax, 4

; 468  : 
; 469  :     fseek(logFile, TextOffset, SEEK_END);

	push	2
	push	DWORD PTR ?TextOffset@@3HA		; TextOffset
	mov	esi, DWORD PTR ?LogFiles@@3PAULogFile@@A[eax]
	push	esi
	call	DWORD PTR __imp__fseek

; 470  : 
; 471  :     fprintf(logFile, "<img src = \"%s\" height = 600>\n", imagePath);

	push	DWORD PTR _imagePath$[ebp]
	push	OFFSET ??_C@_0BP@EGJJCKFM@?$DMimg?5src?5?$DN?5?$CC?$CFs?$CC?5height?5?$DN?5600?$DO?6@
	push	esi
	call	_fprintf

; 472  : 
; 473  :     fputs("</body>\n"

	push	esi
	push	OFFSET ??_C@_0BB@CNLIDADO@?$DM?1body?$DO?6?$DM?1html?$DO?6@
	call	DWORD PTR __imp__fputs

; 474  :           "</html>\n", logFile);
; 475  : 
; 476  :     fflush(logFile);

	push	esi
	call	DWORD PTR __imp__fflush
	add	esp, 36					; 00000024H
	pop	esi

; 477  : }

	pop	ebp
	ret	0
?LogAddImage@@YAXW4LogSignature@@PBD@Z ENDP		; LogAddImage
_TEXT	ENDS
; Function compile flags: /Ogtp
; File D:\Language C\HashTable\HashTable\Logs\Logs.cpp
;	COMDAT ?LogEndDump@@YAXW4LogSignature@@@Z
_TEXT	SEGMENT
_sig$ = 8						; size = 4
?LogEndDump@@YAXW4LogSignature@@@Z PROC			; LogEndDump, COMDAT

; 447  : {

	push	ebp
	mov	ebp, esp
	push	esi

; 448  :     size_t logIndex = (size_t)sig;
; 449  :     assert(logIndex < LogFilesSize);
; 450  : 
; 451  :     fputs("\t</font>\n"

	mov	esi, DWORD PTR _sig$[ebp]
	shl	esi, 4
	push	DWORD PTR ?LogFiles@@3PAULogFile@@A[esi]
	push	OFFSET ??_C@_0CB@PKIAMGMI@?7?$DM?1font?$DO?6?$DM?1pre?$DO?6?$DM?1body?$DO?6?$DM?1html?$DO@
	call	DWORD PTR __imp__fputs

; 452  :           "</pre>\n"
; 453  :           "</body>\n"
; 454  :           "</html>\n", LogFiles[logIndex].file);
; 455  : 
; 456  :     fflush(LogFiles[logIndex].file);

	push	DWORD PTR ?LogFiles@@3PAULogFile@@A[esi]
	call	DWORD PTR __imp__fflush
	add	esp, 12					; 0000000cH
	pop	esi

; 457  : }

	pop	ebp
	ret	0
?LogEndDump@@YAXW4LogSignature@@@Z ENDP			; LogEndDump
_TEXT	ENDS
; Function compile flags: /Ogtp
; File D:\Language C\HashTable\HashTable\Logs\Logs.cpp
;	COMDAT ?LogBeginDump@@YAPAU_iobuf@@W4LogSignature@@W4LogLevel@@PBD2H@Z
_TEXT	SEGMENT
_rawTime$ = -1076					; size = 8
_buffer$ = -1068					; size = 1024
_bufferTime$ = -44					; size = 40
__$ArrayPad$ = -4					; size = 4
_sig$ = 8						; size = 4
_logLevel$ = 12						; size = 4
_funcName$ = 16						; size = 4
_fileName$ = 20						; size = 4
_logLine$ = 24						; size = 4
?LogBeginDump@@YAPAU_iobuf@@W4LogSignature@@W4LogLevel@@PBD2H@Z PROC ; LogBeginDump, COMDAT

; 402  : {

	push	ebp
	mov	ebp, esp
	sub	esp, 1076				; 00000434H
	mov	eax, DWORD PTR ___security_cookie
	xor	eax, ebp
	mov	DWORD PTR __$ArrayPad$[ebp], eax
	push	ebx
	push	esi
	mov	esi, DWORD PTR _fileName$[ebp]

; 403  :     assert(funcName);
; 404  :     assert(fileName);
; 405  : 
; 406  :     assert(LogFilesCreated);
; 407  : 
; 408  :     //***\\---//***\\-----//***\\---//***\\-----//*****\\-----//***\\---//***\\-----//***\\---//***\\
; 409  : 
; 410  :     int status = LOG_NO_ERRORS;
; 411  : 
; 412  :     char  bufferTime[bufferTimeSize] = "";
; 413  :     char  buffer[bufferSize]         = "";

	lea	eax, DWORD PTR _buffer$[ebp]
	push	edi
	mov	edi, DWORD PTR _funcName$[ebp]
	xorps	xmm0, xmm0
	push	1024					; 00000400H
	push	0
	push	eax
	movups	XMMWORD PTR _bufferTime$[ebp], xmm0
	movups	XMMWORD PTR _bufferTime$[ebp+16], xmm0
	movq	QWORD PTR _bufferTime$[ebp+32], xmm0
	call	_memset

; 414  : 
; 415  :     const char* logColor             = "C5E0DC";
; 416  : 
; 417  :     size_t logIndex = (size_t)sig;
; 418  :     assert(logIndex < LogFilesSize);
; 419  : 
; 420  :     //***\\---//***\\-----//***\\---//***\\-----//*****\\-----//***\\---//***\\-----//***\\---//***\\
; 421  : 
; 422  :     fseek(LogFiles[logIndex].file, TextOffset, SEEK_END);

	mov	ebx, DWORD PTR _sig$[ebp]
	push	2
	push	DWORD PTR ?TextOffset@@3HA		; TextOffset
	shl	ebx, 4
	push	DWORD PTR ?LogFiles@@3PAULogFile@@A[ebx]
	call	DWORD PTR __imp__fseek

; 423  : 
; 424  :     time_t rawTime = time(nullptr);

	push	0
	call	_time
	mov	DWORD PTR _rawTime$[ebp], eax

; 425  :     tm*    curTime = localtime(&rawTime);

	lea	eax, DWORD PTR _rawTime$[ebp]
	push	eax
	mov	DWORD PTR _rawTime$[ebp+4], edx
	call	_localtime

; 426  :     strftime(bufferTime, bufferTimeSize, "%H:%M:%S", curTime);

	push	eax
	push	OFFSET ??_C@_08OAHPJFNN@?$CFH?3?$CFM?3?$CFS@
	lea	eax, DWORD PTR _bufferTime$[ebp]
	push	40					; 00000028H
	push	eax
	call	DWORD PTR __imp__strftime

; 427  : 
; 428  :     //***\\---//***\\-----//***\\---//***\\-----//*****\\-----//***\\---//***\\-----//***\\---//***\\
; 429  :     
; 430  :     snprintf(buffer, bufferSize,

	push	DWORD PTR _logLine$[ebp]
	mov	ecx, DWORD PTR ?AbsoluteLogLineIndex@@3IA ; AbsoluteLogLineIndex
	push	esi
	push	edi
	push	DWORD PTR ?LogLevelMessages@@3PAPBDA
	lea	eax, DWORD PTR [ecx+1]
	mov	DWORD PTR ?AbsoluteLogLineIndex@@3IA, eax ; AbsoluteLogLineIndex
	lea	eax, DWORD PTR _bufferTime$[ebp]
	push	eax
	push	ecx
	push	OFFSET ??_C@_06IPDIMPDJ@C5E0DC@
	push	OFFSET ??_C@_0EI@HAFPAAKP@?$DMpre?$DO?6?7?$DMfont?5color?$DN?$CC?$CFs?$CC?$DO?6?$CF20zd?5@
	lea	eax, DWORD PTR _buffer$[ebp]
	push	1024					; 00000400H
	push	eax
	call	_snprintf
	add	esp, 88					; 00000058H

; 431  :              "<pre>\n"
; 432  :              "\t<font color=\"%s\">\n"
; 433  :              "%20zd %-.8s [%-.8s] > %s\n"
; 434  :              "\t\tin %s\n"
; 435  :              "\t\tat %d line\n",
; 436  :              logColor, AbsoluteLogLineIndex++, bufferTime, LogLevelMessages[LOG_LVL_TRACE],
; 437  :              funcName,
; 438  :              fileName,
; 439  :              logLine);
; 440  : 
; 441  :     fputs(buffer, LogFiles[logIndex].file);

	lea	eax, DWORD PTR _buffer$[ebp]
	push	DWORD PTR ?LogFiles@@3PAULogFile@@A[ebx]
	push	eax
	call	DWORD PTR __imp__fputs

; 442  : 
; 443  :     return LogFiles[logIndex].file;
; 444  : }

	mov	ecx, DWORD PTR __$ArrayPad$[ebp]
	add	esp, 8
	mov	eax, DWORD PTR ?LogFiles@@3PAULogFile@@A[ebx]
	xor	ecx, ebp
	pop	edi
	pop	esi
	pop	ebx
	call	@__security_check_cookie@4
	mov	esp, ebp
	pop	ebp
	ret	0
?LogBeginDump@@YAPAU_iobuf@@W4LogSignature@@W4LogLevel@@PBD2H@Z ENDP ; LogBeginDump
_TEXT	ENDS
; Function compile flags: /Ogtp
; File D:\Language C\HashTable\HashTable\Logs\Logs.cpp
;	COMDAT ?LogTrace@@YAXW4LogSignature@@PBD1H@Z
_TEXT	SEGMENT
_rawTime$ = -1076					; size = 8
_buffer$ = -1068					; size = 1024
_bufferTime$ = -44					; size = 40
__$ArrayPad$ = -4					; size = 4
_sig$ = 8						; size = 4
_funcName$ = 12						; size = 4
_fileName$ = 16						; size = 4
_logLine$ = 20						; size = 4
?LogTrace@@YAXW4LogSignature@@PBD1H@Z PROC		; LogTrace, COMDAT

; 350  : {

	push	ebp
	mov	ebp, esp
	sub	esp, 1076				; 00000434H
	mov	eax, DWORD PTR ___security_cookie
	xor	eax, ebp
	mov	DWORD PTR __$ArrayPad$[ebp], eax
	push	ebx
	push	esi
	mov	esi, DWORD PTR _fileName$[ebp]

; 351  :     assert(funcName);
; 352  :     assert(fileName);
; 353  :     assert(LogFilesCreated);
; 354  : 
; 355  :     //***\\---//***\\-----//***\\---//***\\-----//*****\\-----//***\\---//***\\-----//***\\---//***\\
; 356  : 
; 357  :     int status = LOG_NO_ERRORS;
; 358  : 
; 359  :     char  bufferTime[bufferTimeSize] = "";
; 360  :     char  buffer[bufferSize]         = "";

	lea	eax, DWORD PTR _buffer$[ebp]
	push	edi
	mov	edi, DWORD PTR _funcName$[ebp]
	xorps	xmm0, xmm0
	push	1024					; 00000400H
	push	0
	push	eax
	movups	XMMWORD PTR _bufferTime$[ebp], xmm0
	movups	XMMWORD PTR _bufferTime$[ebp+16], xmm0
	movq	QWORD PTR _bufferTime$[ebp+32], xmm0
	call	_memset

; 361  : 
; 362  :     const char* logColor             = "F8CA00";
; 363  : 
; 364  :     size_t logIndex = (size_t)sig;
; 365  :     assert(logIndex < LogFilesSize);
; 366  : 
; 367  :     //***\\---//***\\-----//***\\---//***\\-----//*****\\-----//***\\---//***\\-----//***\\---//***\\
; 368  : 
; 369  :     fseek(LogFiles[logIndex].file, TextOffset, SEEK_END);

	mov	ebx, DWORD PTR _sig$[ebp]
	push	2
	push	DWORD PTR ?TextOffset@@3HA		; TextOffset
	shl	ebx, 4
	push	DWORD PTR ?LogFiles@@3PAULogFile@@A[ebx]
	call	DWORD PTR __imp__fseek

; 370  : 
; 371  :     time_t rawTime = time(nullptr);

	push	0
	call	_time
	mov	DWORD PTR _rawTime$[ebp], eax

; 372  :     tm*    curTime = localtime(&rawTime);

	lea	eax, DWORD PTR _rawTime$[ebp]
	push	eax
	mov	DWORD PTR _rawTime$[ebp+4], edx
	call	_localtime

; 373  :     strftime(bufferTime, bufferTimeSize, "%H:%M:%S", curTime);

	push	eax
	push	OFFSET ??_C@_08OAHPJFNN@?$CFH?3?$CFM?3?$CFS@
	lea	eax, DWORD PTR _bufferTime$[ebp]
	push	40					; 00000028H
	push	eax
	call	DWORD PTR __imp__strftime

; 374  : 
; 375  :     //***\\---//***\\-----//***\\---//***\\-----//*****\\-----//***\\---//***\\-----//***\\---//***\\
; 376  :     
; 377  :     snprintf(buffer, bufferSize, 

	push	DWORD PTR _logLine$[ebp]
	mov	ecx, DWORD PTR ?AbsoluteLogLineIndex@@3IA ; AbsoluteLogLineIndex
	push	esi
	push	edi
	push	DWORD PTR ?LogLevelMessages@@3PAPBDA
	lea	eax, DWORD PTR [ecx+1]
	mov	DWORD PTR ?AbsoluteLogLineIndex@@3IA, eax ; AbsoluteLogLineIndex
	lea	eax, DWORD PTR _bufferTime$[ebp]
	push	eax
	push	ecx
	push	OFFSET ??_C@_06GKLHCLKA@F8CA00@
	push	OFFSET ??_C@_0FI@GPNHOGCH@?$DMpre?$DO?6?7?$DMfont?5color?$DN?$CC?$CFs?$CC?$DO?6?$CF20zd?5@
	lea	eax, DWORD PTR _buffer$[ebp]
	push	1024					; 00000400H
	push	eax
	call	_snprintf

; 378  :              "<pre>\n"
; 379  :                 "\t<font color=\"%s\">\n"
; 380  :              "%20zd %-.8s [%-.8s] > %s\n"
; 381  :              "\t\tin %s\n"
; 382  :              "\t\tat %d line\n"
; 383  :                 "\t</font>\n"
; 384  :              "</pre>\n",
; 385  :              logColor, AbsoluteLogLineIndex++, bufferTime, LogLevelMessages[LOG_LVL_TRACE],
; 386  :              funcName,
; 387  :              fileName,
; 388  :              logLine);
; 389  : 
; 390  :     fputs(buffer, LogFiles[logIndex].file);

	mov	esi, DWORD PTR __imp__fputs
	lea	eax, DWORD PTR _buffer$[ebp]
	add	esp, 88					; 00000058H
	push	DWORD PTR ?LogFiles@@3PAULogFile@@A[ebx]
	push	eax
	call	esi

; 391  : 
; 392  :     //***\\---//***\\-----//***\\---//***\\-----//*****\\-----//***\\---//***\\-----//***\\---//***\\
; 393  : 
; 394  :     fputs("</body>\n"

	push	DWORD PTR ?LogFiles@@3PAULogFile@@A[ebx]
	push	OFFSET ??_C@_0BB@CNLIDADO@?$DM?1body?$DO?6?$DM?1html?$DO?6@
	call	esi

; 395  :           "</html>\n", LogFiles[logIndex].file);
; 396  : 
; 397  :     fflush(LogFiles[logIndex].file);

	push	DWORD PTR ?LogFiles@@3PAULogFile@@A[ebx]
	call	DWORD PTR __imp__fflush

; 398  : }

	mov	ecx, DWORD PTR __$ArrayPad$[ebp]
	add	esp, 20					; 00000014H
	xor	ecx, ebp
	pop	edi
	pop	esi
	pop	ebx
	call	@__security_check_cookie@4
	mov	esp, ebp
	pop	ebp
	ret	0
?LogTrace@@YAXW4LogSignature@@PBD1H@Z ENDP		; LogTrace
_TEXT	ENDS
; Function compile flags: /Ogtp
; File D:\Language C\HashTable\HashTable\Logs\Logs.cpp
;	COMDAT ?LogFLine@@YAXW4LogLevel@@W4LogSignature@@_NPBD3H3ZZ
_TEXT	SEGMENT
_funcName$GSCopy$1$ = -1084				; size = 4
_fileName$GSCopy$1$ = -1080				; size = 4
_rawTime$ = -1076					; size = 8
_buffer$ = -1068					; size = 1024
_bufferTime$ = -44					; size = 40
__$ArrayPad$ = -4					; size = 4
_logLevel$ = 8						; size = 4
_sig$ = 12						; size = 4
_dublicateToConsole$ = 16				; size = 1
_funcName$ = 20						; size = 4
_fileName$ = 24						; size = 4
_logLine$ = 28						; size = 4
_format$ = 32						; size = 4
?LogFLine@@YAXW4LogLevel@@W4LogSignature@@_NPBD3H3ZZ PROC ; LogFLine, COMDAT

; 266  : {

	push	ebp
	mov	ebp, esp
	sub	esp, 1084				; 0000043cH
	mov	eax, DWORD PTR ___security_cookie
	xor	eax, ebp
	mov	DWORD PTR __$ArrayPad$[ebp], eax
	mov	eax, DWORD PTR _funcName$[ebp]
	xorps	xmm0, xmm0
	push	ebx
	mov	ebx, DWORD PTR _logLevel$[ebp]
	push	esi
	push	edi
	mov	DWORD PTR _funcName$GSCopy$1$[ebp], eax
	mov	eax, DWORD PTR _fileName$[ebp]

; 267  :     assert(format);
; 268  :     assert(funcName);
; 269  :     assert(fileName);
; 270  : 
; 271  :     assert(LogFilesCreated);
; 272  : 
; 273  :     //***\\---//***\\-----//***\\---//***\\-----//*****\\-----//***\\---//***\\-----//***\\---//***\\
; 274  :     
; 275  :     char  bufferTime[bufferTimeSize] = "";
; 276  :     char  buffer[bufferSize] = "";

	push	1024					; 00000400H
	mov	DWORD PTR _fileName$GSCopy$1$[ebp], eax
	lea	eax, DWORD PTR _buffer$[ebp]
	push	0
	push	eax
	movups	XMMWORD PTR _bufferTime$[ebp], xmm0
	movups	XMMWORD PTR _bufferTime$[ebp+16], xmm0
	movq	QWORD PTR _bufferTime$[ebp+32], xmm0
	call	_memset

; 277  : 
; 278  :     const char* logColor     = nullptr;
; 279  :     
; 280  :     size_t logIndex = (size_t)sig;
; 281  :     assert(logIndex < LogFilesSize);
; 282  : 
; 283  :     //***\\---//***\\-----//***\\---//***\\-----//*****\\-----//***\\---//***\\-----//***\\---//***\\
; 284  : 
; 285  :     switch (logLevel)

	mov	eax, ebx
	add	esp, 12					; 0000000cH
	sub	eax, 1
	je	SHORT $LN4@LogFLine
	sub	eax, 2
	je	SHORT $LN5@LogFLine
	sub	eax, 1
	je	SHORT $LN6@LogFLine

; 296  :         default:
; 297  :             logColor = "EAE6CA";

	mov	esi, OFFSET ??_C@_06GOEJJOAP@EAE6CA@
	jmp	SHORT $LN2@LogFLine
$LN6@LogFLine:

; 293  :         case LOG_LVL_ERROR:
; 294  :             logColor = "D53032";

	mov	esi, OFFSET ??_C@_06FLJHNCLK@D53032@

; 295  :             break;

	jmp	SHORT $LN2@LogFLine
$LN5@LogFLine:

; 289  :             break;
; 290  :         case LOG_LVL_WARNING:
; 291  :             logColor = "FF4D00";

	mov	esi, OFFSET ??_C@_06CHLDILPM@FF4D00@

; 292  :             break;

	jmp	SHORT $LN2@LogFLine
$LN4@LogFLine:

; 286  :     {
; 287  :         case LOG_LVL_DEBUG:
; 288  :             logColor = "FFA000";

	mov	esi, OFFSET ??_C@_06PCNMNDII@FFA000@
$LN2@LogFLine:

; 298  :             break;
; 299  :     }
; 300  : 
; 301  :     //***\\---//***\\-----//***\\---//***\\-----//*****\\-----//***\\---//***\\-----//***\\---//***\\
; 302  :     
; 303  :     fseek(LogFiles[logIndex].file, TextOffset, SEEK_END);

	mov	edi, DWORD PTR _sig$[ebp]
	push	2
	push	DWORD PTR ?TextOffset@@3HA		; TextOffset
	shl	edi, 4
	push	DWORD PTR ?LogFiles@@3PAULogFile@@A[edi]
	call	DWORD PTR __imp__fseek

; 304  : 
; 305  :     time_t rawTime = time(nullptr);

	push	0
	call	_time
	mov	DWORD PTR _rawTime$[ebp], eax

; 306  :     tm*    curTime = localtime(&rawTime);

	lea	eax, DWORD PTR _rawTime$[ebp]
	push	eax
	mov	DWORD PTR _rawTime$[ebp+4], edx
	call	_localtime

; 307  :     strftime(bufferTime, bufferTimeSize, "%H:%M:%S", curTime);

	push	eax
	push	OFFSET ??_C@_08OAHPJFNN@?$CFH?3?$CFM?3?$CFS@
	lea	eax, DWORD PTR _bufferTime$[ebp]
	push	40					; 00000028H
	push	eax
	call	DWORD PTR __imp__strftime

; 308  : 
; 309  :     //***\\---//***\\-----//***\\---//***\\-----//*****\\-----//***\\---//***\\-----//***\\---//***\\
; 310  : 
; 311  :     snprintf(buffer, bufferSize, "<pre>"

	push	DWORD PTR _logLine$[ebp]
	mov	ecx, DWORD PTR ?AbsoluteLogLineIndex@@3IA ; AbsoluteLogLineIndex
	push	DWORD PTR _fileName$GSCopy$1$[ebp]
	push	DWORD PTR _funcName$GSCopy$1$[ebp]
	lea	eax, DWORD PTR [ecx+1]
	push	DWORD PTR ?LogLevelMessages@@3PAPBDA[ebx*4]
	mov	DWORD PTR ?AbsoluteLogLineIndex@@3IA, eax ; AbsoluteLogLineIndex
	lea	eax, DWORD PTR _bufferTime$[ebp]
	push	eax
	push	ecx
	push	esi
	push	OFFSET ??_C@_0LL@OJMABLHK@?$DMpre?$DO?$DMfont?5color?$DN?$CC?$CFs?$CC?$DO?$CF20zd?5?$CF?9?4@
	lea	eax, DWORD PTR _buffer$[ebp]
	push	1024					; 00000400H
	push	eax
	call	_snprintf

; 312  :             "<font color=\"%s\">%20zd %-.8s [%-.8s] > </font>"
; 313  :             "<font color = \"BDDA57\">%s</font>\n"
; 314  :             "<font color = \"B0B7C6\"> in %s</font>\n"
; 315  :             "<font color = \"FFD700\"> at %d line</font>\n"
; 316  :             "<font color = \"ADDFAD\">",
; 317  :             logColor, AbsoluteLogLineIndex++, bufferTime, LogLevelMessages[(int)logLevel],
; 318  :             funcName,
; 319  :             fileName,
; 320  :             logLine);
; 321  :     
; 322  :     fputs(buffer, LogFiles[logIndex].file);

	mov	ebx, DWORD PTR __imp__fputs
	lea	eax, DWORD PTR _buffer$[ebp]
	add	esp, 76					; 0000004cH
	push	DWORD PTR ?LogFiles@@3PAULogFile@@A[edi]
	push	eax
	call	ebx

; 323  : 
; 324  :     //***\\---//***\\-----//***\\---//***\\-----//*****\\-----//***\\---//***\\-----//***\\---//***\\
; 325  : 
; 326  :     va_list args;
; 327  : 	va_start(args, format);
; 328  :     vsnprintf(buffer, bufferSize, format, args);

	lea	eax, DWORD PTR _format$[ebp+4]
	push	eax
	push	DWORD PTR _format$[ebp]
	lea	eax, DWORD PTR _buffer$[ebp]
	push	1024					; 00000400H
	push	eax
	call	_vsnprintf
	add	esp, 24					; 00000018H

; 329  :     va_end(args);
; 330  : 
; 331  :     //***\\---//***\\-----//***\\---//***\\-----//*****\\-----//***\\---//***\\-----//***\\---//***\\
; 332  :     
; 333  :     if (dublicateToConsole)

	cmp	BYTE PTR _dublicateToConsole$[ebp], 0
	je	SHORT $LN8@LogFLine

; 334  :     {
; 335  :         fputs(buffer, stderr);

	mov	esi, DWORD PTR __imp____acrt_iob_func
	push	2
	call	esi
	push	eax
	lea	eax, DWORD PTR _buffer$[ebp]
	push	eax
	call	ebx

; 336  :         fputc('\n', stderr);

	push	2
	call	esi
	push	eax
	push	10					; 0000000aH
	call	DWORD PTR __imp__fputc
	add	esp, 24					; 00000018H
$LN8@LogFLine:

; 337  :     }
; 338  :     
; 339  :     fputs(buffer, LogFiles[logIndex].file);

	push	DWORD PTR ?LogFiles@@3PAULogFile@@A[edi]
	lea	eax, DWORD PTR _buffer$[ebp]
	push	eax
	call	ebx

; 340  :     
; 341  :     fputs("</font></pre>\n"

	push	DWORD PTR ?LogFiles@@3PAULogFile@@A[edi]
	push	OFFSET ??_C@_0BP@PNKLOLMG@?$DM?1font?$DO?$DM?1pre?$DO?6?$DM?1body?$DO?6?$DM?1html?$DO?6@
	call	ebx

; 342  :           "</body>\n"
; 343  :           "</html>\n", LogFiles[logIndex].file);
; 344  : 
; 345  :     fflush(LogFiles[logIndex].file);

	push	DWORD PTR ?LogFiles@@3PAULogFile@@A[edi]
	call	DWORD PTR __imp__fflush

; 346  : }

	mov	ecx, DWORD PTR __$ArrayPad$[ebp]
	add	esp, 20					; 00000014H
	xor	ecx, ebp
	pop	edi
	pop	esi
	pop	ebx
	call	@__security_check_cookie@4
	mov	esp, ebp
	pop	ebp
	ret	0
?LogFLine@@YAXW4LogLevel@@W4LogSignature@@_NPBD3H3ZZ ENDP ; LogFLine
_TEXT	ENDS
; Function compile flags: /Ogtp
; File D:\Language C\HashTable\HashTable\Logs\Logs.cpp
;	COMDAT ?LogLine@@YAXPBDW4LogLevel@@W4LogSignature@@_N00H@Z
_TEXT	SEGMENT
_message$GSCopy$1$ = -1092				; size = 4
_logLevel$GSCopy$1$ = -1088				; size = 4
_funcName$GSCopy$1$ = -1084				; size = 4
_fileName$GSCopy$1$ = -1080				; size = 4
_rawTime$ = -1076					; size = 8
_buffer$ = -1068					; size = 1024
_bufferTime$ = -44					; size = 40
__$ArrayPad$ = -4					; size = 4
_message$ = 8						; size = 4
_logLevel$ = 12						; size = 4
_sig$ = 16						; size = 4
_dublicateToConsole$ = 20				; size = 1
_funcName$ = 24						; size = 4
_fileName$ = 28						; size = 4
_logLine$ = 32						; size = 4
?LogLine@@YAXPBDW4LogLevel@@W4LogSignature@@_N00H@Z PROC ; LogLine, COMDAT

; 188  : {

	push	ebp
	mov	ebp, esp
	sub	esp, 1092				; 00000444H
	mov	eax, DWORD PTR ___security_cookie
	xor	eax, ebp
	mov	DWORD PTR __$ArrayPad$[ebp], eax
	mov	eax, DWORD PTR _funcName$[ebp]
	xorps	xmm0, xmm0
	push	ebx
	mov	ebx, DWORD PTR _message$[ebp]
	push	esi
	mov	esi, DWORD PTR _logLevel$[ebp]
	push	edi
	mov	DWORD PTR _funcName$GSCopy$1$[ebp], eax
	mov	eax, DWORD PTR _fileName$[ebp]

; 189  :     assert(message);
; 190  :     assert(funcName);
; 191  :     assert(fileName);
; 192  : 
; 193  :     assert(LogFilesCreated);
; 194  : 
; 195  :     //***\\---//***\\-----//***\\---//***\\-----//*****\\-----//***\\---//***\\-----//***\\---//***\\
; 196  : 
; 197  :     int status = LOG_NO_ERRORS;
; 198  : 
; 199  :     char  bufferTime[bufferTimeSize] = "";
; 200  :     char  buffer[bufferSize]         = "";

	push	1024					; 00000400H
	mov	DWORD PTR _fileName$GSCopy$1$[ebp], eax
	lea	eax, DWORD PTR _buffer$[ebp]
	push	0
	push	eax
	mov	DWORD PTR _message$GSCopy$1$[ebp], ebx
	mov	DWORD PTR _logLevel$GSCopy$1$[ebp], esi
	movups	XMMWORD PTR _bufferTime$[ebp], xmm0
	movups	XMMWORD PTR _bufferTime$[ebp+16], xmm0
	movq	QWORD PTR _bufferTime$[ebp+32], xmm0
	call	_memset

; 201  : 
; 202  :     const char* logColor             = nullptr;
; 203  :     
; 204  :     size_t logIndex = (size_t)sig;
; 205  :     assert(logIndex < LogFilesSize);
; 206  : 
; 207  :     //***\\---//***\\-----//***\\---//***\\-----//*****\\-----//***\\---//***\\-----//***\\---//***\\
; 208  : 
; 209  :     switch (logLevel)

	mov	eax, esi
	add	esp, 12					; 0000000cH
	sub	eax, 1
	je	SHORT $LN4@LogLine
	sub	eax, 2
	je	SHORT $LN5@LogLine
	sub	eax, 1
	je	SHORT $LN6@LogLine

; 220  :         default:
; 221  :             logColor = "EAE6CA";

	mov	esi, OFFSET ??_C@_06GOEJJOAP@EAE6CA@
	jmp	SHORT $LN2@LogLine
$LN6@LogLine:

; 217  :         case LOG_LVL_ERROR:
; 218  :             logColor = "D53032";

	mov	esi, OFFSET ??_C@_06FLJHNCLK@D53032@

; 219  :             break;

	jmp	SHORT $LN2@LogLine
$LN5@LogLine:

; 213  :             break;
; 214  :         case LOG_LVL_WARNING:
; 215  :             logColor = "FF4D00";

	mov	esi, OFFSET ??_C@_06CHLDILPM@FF4D00@

; 216  :             break;

	jmp	SHORT $LN2@LogLine
$LN4@LogLine:

; 210  :     {
; 211  :         case LOG_LVL_DEBUG:
; 212  :             logColor = "FFA000";

	mov	esi, OFFSET ??_C@_06PCNMNDII@FFA000@
$LN2@LogLine:

; 222  :             break;
; 223  :     }
; 224  : 
; 225  :     //***\\---//***\\-----//***\\---//***\\-----//*****\\-----//***\\---//***\\-----//***\\---//***\\
; 226  : 
; 227  :     fseek(LogFiles[logIndex].file, TextOffset, SEEK_END);

	mov	edi, DWORD PTR _sig$[ebp]
	push	2
	push	DWORD PTR ?TextOffset@@3HA		; TextOffset
	shl	edi, 4
	push	DWORD PTR ?LogFiles@@3PAULogFile@@A[edi]
	call	DWORD PTR __imp__fseek

; 228  : 
; 229  :     time_t rawTime = time(nullptr);

	push	0
	call	_time
	mov	DWORD PTR _rawTime$[ebp], eax

; 230  :     tm*    curTime = localtime(&rawTime);

	lea	eax, DWORD PTR _rawTime$[ebp]
	push	eax
	mov	DWORD PTR _rawTime$[ebp+4], edx
	call	_localtime

; 231  :     strftime(bufferTime, bufferTimeSize, "%H:%M:%S", curTime);

	push	eax
	push	OFFSET ??_C@_08OAHPJFNN@?$CFH?3?$CFM?3?$CFS@
	lea	eax, DWORD PTR _bufferTime$[ebp]
	push	40					; 00000028H
	push	eax
	call	DWORD PTR __imp__strftime

; 232  : 
; 233  :     //***\\---//***\\-----//***\\---//***\\-----//*****\\-----//***\\---//***\\-----//***\\---//***\\
; 234  :     
; 235  :     snprintf(buffer, bufferSize, "<pre>"

	mov	ecx, DWORD PTR ?AbsoluteLogLineIndex@@3IA ; AbsoluteLogLineIndex
	push	ebx
	push	DWORD PTR _logLine$[ebp]
	push	DWORD PTR _fileName$GSCopy$1$[ebp]
	lea	eax, DWORD PTR [ecx+1]
	push	DWORD PTR _funcName$GSCopy$1$[ebp]
	mov	DWORD PTR ?AbsoluteLogLineIndex@@3IA, eax ; AbsoluteLogLineIndex
	mov	eax, DWORD PTR _logLevel$GSCopy$1$[ebp]
	push	DWORD PTR ?LogLevelMessages@@3PAPBDA[eax*4]
	lea	eax, DWORD PTR _bufferTime$[ebp]
	push	eax
	push	ecx
	push	esi
	push	OFFSET ??_C@_0MO@HKOGMAAE@?$DMpre?$DO?$DMfont?5color?$DN?$CC?$CFs?$CC?$DO?$CF20zd?$DO?5?$CF?9@
	lea	eax, DWORD PTR _buffer$[ebp]
	push	1024					; 00000400H
	push	eax
	call	_snprintf

; 236  :             "<font color=\"%s\">%20zd> %-.8s [%-.8s] > </font>"
; 237  :             "<font color = \"D5DED9\">%s</font>\n"
; 238  :             "<font color = \"B0B7C6\"> in %s</font>\n"
; 239  :             "<font color = \"FFD700\"> at %d line</font>\n"
; 240  :             "<font color = \"ADDFAD\">\t %s</font>"
; 241  :             "</pre>\n",
; 242  :             logColor, AbsoluteLogLineIndex++, bufferTime, LogLevelMessages[(int)logLevel],
; 243  :             funcName,
; 244  :             fileName,
; 245  :             logLine,
; 246  :             message);
; 247  : 
; 248  :     fputs(buffer, LogFiles[logIndex].file);

	mov	ebx, DWORD PTR __imp__fputs
	lea	eax, DWORD PTR _buffer$[ebp]
	add	esp, 80					; 00000050H
	push	DWORD PTR ?LogFiles@@3PAULogFile@@A[edi]
	push	eax
	call	ebx
	add	esp, 8

; 249  : 
; 250  :     //***\\---//***\\-----//***\\---//***\\-----//*****\\-----//***\\---//***\\-----//***\\---//***\\
; 251  : 
; 252  :     if (dublicateToConsole)

	cmp	BYTE PTR _dublicateToConsole$[ebp], 0
	je	SHORT $LN8@LogLine

; 253  :     {
; 254  :         fputs(message, stderr);

	mov	esi, DWORD PTR __imp____acrt_iob_func
	push	2
	call	esi
	push	eax
	push	DWORD PTR _message$GSCopy$1$[ebp]
	call	ebx

; 255  :         fputc('\n', stderr);

	push	2
	call	esi
	push	eax
	push	10					; 0000000aH
	call	DWORD PTR __imp__fputc
	add	esp, 24					; 00000018H
$LN8@LogLine:

; 256  :     }
; 257  : 
; 258  :     fputs("</body>\n"

	push	DWORD PTR ?LogFiles@@3PAULogFile@@A[edi]
	push	OFFSET ??_C@_0BB@CNLIDADO@?$DM?1body?$DO?6?$DM?1html?$DO?6@
	call	ebx

; 259  :           "</html>\n", LogFiles[logIndex].file);
; 260  : 
; 261  :     fflush(LogFiles[logIndex].file);

	push	DWORD PTR ?LogFiles@@3PAULogFile@@A[edi]
	call	DWORD PTR __imp__fflush

; 262  : }

	mov	ecx, DWORD PTR __$ArrayPad$[ebp]
	add	esp, 12					; 0000000cH
	xor	ecx, ebp
	pop	edi
	pop	esi
	pop	ebx
	call	@__security_check_cookie@4
	mov	esp, ebp
	pop	ebp
	ret	0
?LogLine@@YAXPBDW4LogLevel@@W4LogSignature@@_N00H@Z ENDP ; LogLine
_TEXT	ENDS
; Function compile flags: /Ogtp
; File D:\Language C\HashTable\HashTable\Logs\Logs.cpp
;	COMDAT ?LogsDestructor@@YAXXZ
_TEXT	SEGMENT
?LogsDestructor@@YAXXZ PROC				; LogsDestructor, COMDAT

; 165  :     assert(LogFilesCreated);
; 166  : 
; 167  :     if (LogFilesClosed)

	cmp	BYTE PTR ?LogFilesClosed@@3_NA, 0	; LogFilesClosed
	jne	SHORT $LN1@LogsDestru

; 168  :         return;
; 169  : 
; 170  :     //***\\---//***\\-----//***\\---//***\\-----//*****\\-----//***\\---//***\\-----//***\\---//***\\
; 171  : 
; 172  :     for (size_t st = 0; st < LogFilesSize; st++)

	push	esi
	push	edi
	mov	esi, OFFSET ?LogFiles@@3PAULogFile@@A	; LogFiles
	mov	edi, 10					; 0000000aH
$LL4@LogsDestru:

; 173  :     {
; 174  :         LogFile logFile = LogFiles[st];
; 175  : 
; 176  :         if (logFile.file)

	mov	eax, DWORD PTR [esi]
	test	eax, eax
	je	SHORT $LN2@LogsDestru

; 177  :             fclose(logFile.file);

	push	eax
	call	DWORD PTR __imp__fclose
	add	esp, 4
$LN2@LogsDestru:

; 168  :         return;
; 169  : 
; 170  :     //***\\---//***\\-----//***\\---//***\\-----//*****\\-----//***\\---//***\\-----//***\\---//***\\
; 171  : 
; 172  :     for (size_t st = 0; st < LogFilesSize; st++)

	add	esi, 16					; 00000010H
	sub	edi, 1
	jne	SHORT $LL4@LogsDestru

; 178  :     }
; 179  : 
; 180  :     LogFilesClosed = true;

	pop	edi
	mov	BYTE PTR ?LogFilesClosed@@3_NA, 1	; LogFilesClosed
	pop	esi
$LN1@LogsDestru:

; 181  : }

	ret	0
?LogsDestructor@@YAXXZ ENDP				; LogsDestructor
_TEXT	ENDS
; Function compile flags: /Ogtp
; File D:\Language C\HashTable\HashTable\Logs\Logs.cpp
;	COMDAT ?LogsConstructor@@YAHXZ
_TEXT	SEGMENT
?LogsConstructor@@YAHXZ PROC				; LogsConstructor, COMDAT

; 74   : {

	push	esi

; 75   :     LogFilesCreated = true;
; 76   :     
; 77   :     system("rd " LOGS_FOLDER "/s /q");

	mov	esi, DWORD PTR __imp__system
	push	OFFSET ??_C@_0P@IHBDHAOI@rd?5_logs?2?1s?5?1q@
	mov	BYTE PTR ?LogFilesCreated@@3_NA, 1	; LogFilesCreated
	call	esi

; 78   :     system("md " LOGS_FOLDER);

	push	OFFSET ??_C@_09JHBEBHLP@md?5_logs?2@
	call	esi

; 79   : 
; 80   :     int status = LOG_NO_ERRORS;
; 81   : 
; 82   :     status |= LogConstructor(LOGS_FOLDER "log_general.html",    "Общий лог программы.",    LOG_SIG_GENERAL);

	push	0
	push	OFFSET ??_C@_0BF@KAGIMHEI@?N?a?y?h?i?5?k?n?c?5?o?p?n?c?p?$OA?l?l?$PL?4@
	push	OFFSET ??_C@_0BH@JCPAHDHF@_logs?2log_general?4html@
	call	?LogConstructor@@YAHPBD0W4LogSignature@@@Z ; LogConstructor

; 83   :                                                              
; 84   :     status |= LogConstructor(LOGS_FOLDER "log_hash_table.html", "Лог работы хеш-таблицы.", LOG_SIG_HASH_TABLE);

	push	1
	push	OFFSET ??_C@_0BI@GOPCKDAA@?K?n?c?5?p?$OA?a?n?r?$PL?5?u?e?x?9?r?$OA?a?k?h?v?$PL?4@
	push	OFFSET ??_C@_0BK@LJLFJJLN@_logs?2log_hash_table?4html@
	mov	esi, eax
	call	?LogConstructor@@YAHPBD0W4LogSignature@@@Z ; LogConstructor

; 85   : 
; 86   :     status |= LogConstructor(LOGS_FOLDER "log_list.html", "Лог работы двусвязного списка.", LOG_SIG_LIST);

	push	2
	push	OFFSET ??_C@_0BP@OEDACHLD@?K?n?c?5?p?$OA?a?n?r?$PL?5?d?b?s?q?b?$PP?g?m?n?c?n?5?q?o?h?q?j?$OA?4@
	push	OFFSET ??_C@_0BE@GNPFIHOC@_logs?2log_list?4html@
	or	esi, eax
	call	?LogConstructor@@YAHPBD0W4LogSignature@@@Z ; LogConstructor

; 87   : 
; 88   :     atexit(LogsDestructor);

	push	OFFSET ?LogsDestructor@@YAXXZ		; LogsDestructor
	or	esi, eax
	call	_atexit
	add	esp, 48					; 00000030H

; 89   : 
; 90   :     return status;

	mov	eax, esi
	pop	esi

; 91   : }

	ret	0
?LogsConstructor@@YAHXZ ENDP				; LogsConstructor
_TEXT	ENDS
; Function compile flags: /Ogtp
; File C:\Program Files (x86)\Windows Kits\10\Include\10.0.19041.0\ucrt\time.h
;	COMDAT _time
_TEXT	SEGMENT
__Time$ = 8						; size = 4
_time	PROC						; COMDAT

; 521  :         {

	push	ebp
	mov	ebp, esp

; 523  :         }

	pop	ebp

; 522  :             return _time64(_Time);

	jmp	DWORD PTR __imp___time64
_time	ENDP
_TEXT	ENDS
; Function compile flags: /Ogtp
; File C:\Program Files (x86)\Windows Kits\10\Include\10.0.19041.0\ucrt\time.h
;	COMDAT _localtime
_TEXT	SEGMENT
__Time$ = 8						; size = 4
_localtime PROC						; COMDAT

; 498  :         {

	push	ebp
	mov	ebp, esp

; 500  :         }

	pop	ebp

; 499  :             return _localtime64(_Time);

	jmp	DWORD PTR __imp___localtime64
_localtime ENDP
_TEXT	ENDS
; Function compile flags: /Ogtp
; File C:\Program Files (x86)\Windows Kits\10\Include\10.0.19041.0\ucrt\stdio.h
;	COMDAT _snprintf
_TEXT	SEGMENT
__Buffer$ = 8						; size = 4
__BufferCount$ = 12					; size = 4
__Format$ = 16						; size = 4
_snprintf PROC						; COMDAT

; 1927 :     {

	push	ebp
	mov	ebp, esp
	mov	eax, DWORD PTR __Buffer$[ebp]

; 1928 :         int _Result;
; 1929 :         va_list _ArgList;
; 1930 :         __crt_va_start(_ArgList, _Format);
; 1931 :         _Result = vsnprintf(_Buffer, _BufferCount, _Format, _ArgList);

	lea	ecx, DWORD PTR __Format$[ebp+4]
	push	ecx
	push	DWORD PTR __Format$[ebp]
	push	DWORD PTR __BufferCount$[ebp]
	push	eax
	call	_vsnprintf
	add	esp, 16					; 00000010H

; 1932 :         __crt_va_end(_ArgList);
; 1933 :         return _Result;
; 1934 :     }

	pop	ebp
	ret	0
_snprintf ENDP
_TEXT	ENDS
; Function compile flags: /Ogtp
; File C:\Program Files (x86)\Windows Kits\10\Include\10.0.19041.0\ucrt\stdio.h
;	COMDAT _vsnprintf
_TEXT	SEGMENT
__Buffer$ = 8						; size = 4
__BufferCount$ = 12					; size = 4
__Format$ = 16						; size = 4
__ArgList$ = 20						; size = 4
_vsnprintf PROC						; COMDAT

; 1438 :     {

	push	ebp
	mov	ebp, esp

; 1439 :         int const _Result = __stdio_common_vsprintf(

	push	DWORD PTR __ArgList$[ebp]
	push	0
	push	DWORD PTR __Format$[ebp]
	push	DWORD PTR __BufferCount$[ebp]
	push	DWORD PTR __Buffer$[ebp]
	call	___local_stdio_printf_options
	mov	ecx, DWORD PTR [eax]
	push	DWORD PTR [eax+4]
	or	ecx, 2
	push	ecx
	call	DWORD PTR __imp____stdio_common_vsprintf

; 1440 :             _CRT_INTERNAL_LOCAL_PRINTF_OPTIONS | _CRT_INTERNAL_PRINTF_STANDARD_SNPRINTF_BEHAVIOR,
; 1441 :             _Buffer, _BufferCount, _Format, NULL, _ArgList);
; 1442 : 
; 1443 :         return _Result < 0 ? -1 : _Result;

	or	ecx, -1
	add	esp, 28					; 0000001cH
	test	eax, eax
	cmovs	eax, ecx

; 1444 :     }

	pop	ebp
	ret	0
_vsnprintf ENDP
_TEXT	ENDS
; Function compile flags: /Ogtp
; File C:\Program Files (x86)\Windows Kits\10\Include\10.0.19041.0\ucrt\stdio.h
;	COMDAT _fprintf
_TEXT	SEGMENT
__Stream$ = 8						; size = 4
__Format$ = 12						; size = 4
_fprintf PROC						; COMDAT

; 837  :     {

	push	ebp
	mov	ebp, esp
	mov	eax, DWORD PTR __Stream$[ebp]

; 838  :         int _Result;
; 839  :         va_list _ArgList;
; 840  :         __crt_va_start(_ArgList, _Format);
; 841  :         _Result = _vfprintf_l(_Stream, _Format, NULL, _ArgList);

	lea	ecx, DWORD PTR __Format$[ebp+4]
	push	ecx
	push	0
	push	DWORD PTR __Format$[ebp]
	push	eax
	call	__vfprintf_l
	add	esp, 16					; 00000010H

; 842  :         __crt_va_end(_ArgList);
; 843  :         return _Result;
; 844  :     }

	pop	ebp
	ret	0
_fprintf ENDP
_TEXT	ENDS
; Function compile flags: /Ogtp
; File C:\Program Files (x86)\Windows Kits\10\Include\10.0.19041.0\ucrt\stdio.h
;	COMDAT __vfprintf_l
_TEXT	SEGMENT
__Stream$ = 8						; size = 4
__Format$ = 12						; size = 4
__Locale$ = 16						; size = 4
__ArgList$ = 20						; size = 4
__vfprintf_l PROC					; COMDAT

; 644  :     {

	push	ebp
	mov	ebp, esp

; 645  :         return __stdio_common_vfprintf(_CRT_INTERNAL_LOCAL_PRINTF_OPTIONS, _Stream, _Format, _Locale, _ArgList);

	push	DWORD PTR __ArgList$[ebp]
	push	DWORD PTR __Locale$[ebp]
	push	DWORD PTR __Format$[ebp]
	push	DWORD PTR __Stream$[ebp]
	call	___local_stdio_printf_options
	push	DWORD PTR [eax+4]
	push	DWORD PTR [eax]
	call	DWORD PTR __imp____stdio_common_vfprintf
	add	esp, 24					; 00000018H

; 646  :     }

	pop	ebp
	ret	0
__vfprintf_l ENDP
_TEXT	ENDS
; Function compile flags: /Ogtp
; File C:\Program Files (x86)\Windows Kits\10\Include\10.0.19041.0\ucrt\corecrt_stdio_config.h
;	COMDAT ___local_stdio_printf_options
_TEXT	SEGMENT
___local_stdio_printf_options PROC			; COMDAT

; 91   :         static unsigned __int64 _OptionsStorage;
; 92   :         return &_OptionsStorage;

	mov	eax, OFFSET ?_OptionsStorage@?1??__local_stdio_printf_options@@9@4_KA ; `__local_stdio_printf_options'::`2'::_OptionsStorage

; 93   :     }

	ret	0
___local_stdio_printf_options ENDP
_TEXT	ENDS
END
